target datalayout = "e-m:e-p270:32:32-p271:32:32-p272:64:64-i64:64-i128:128-f80:128-n8:16:32:64-S128"
target triple = "x86_64-pc-linux-gnu"

%class.QString = type { %struct.QArrayDataPointer }
%struct.QArrayDataPointer = type { ptr, ptr, i64 }
%class.QFuture = type { %class.QFutureInterface }
%class.QFutureInterface = type { %class.QFutureInterfaceBase }
%class.QFutureInterfaceBase = type { ptr, ptr }
%class.DisplayFilterExpressionDialog = type { %class.GeometryStateDialog, ptr, ptr, i32, ptr, %class.QString }
%class.GeometryStateDialog = type { %class.QDialog, %class.QString }
%class.QDialog = type { %class.QWidget }
%class.QWidget = type { %class.QObject, %class.QPaintDevice.base, ptr }
%class.QObject = type { ptr, %class.QScopedPointer }
%class.QScopedPointer = type { ptr }
%class.QPaintDevice.base = type <{ ptr, i16 }>
%class.Ui_DisplayFilterExpressionDialog = type { ptr, ptr, ptr, ptr, ptr, ptr, ptr, ptr, ptr, ptr, ptr, ptr, ptr, ptr, ptr, ptr, ptr, ptr, ptr, ptr, ptr, ptr, ptr, ptr, ptr, ptr, ptr, ptr, ptr, ptr, ptr, ptr }
%class.QFutureWatcher = type { %class.QFutureWatcherBase, %class.QFuture }
%class.QFutureWatcherBase = type { %class.QObject }

@_ZTV16QFutureInterfaceIP15QTreeWidgetItemE = linkonce_odr unnamed_addr constant { [4 x ptr] } { [4 x ptr] [ptr null, ptr @_ZTI16QFutureInterfaceIP15QTreeWidgetItemE, ptr @_ZN16QFutureInterfaceIP15QTreeWidgetItemED2Ev, ptr @_ZN16QFutureInterfaceIP15QTreeWidgetItemED0Ev] }, comdat, align 8

; Function Attrs: mustprogress uwtable
define linkonce_odr void @_ZN16QFutureInterfaceIP15QTreeWidgetItemEC2ERKS2_(ptr noundef nonnull align 8 dereferenceable(16) %0, ptr noundef nonnull align 8 dereferenceable(16) %1) unnamed_addr #0 comdat align 2 {
  %3 = alloca ptr, align 8
  %4 = alloca ptr, align 8
  store ptr %0, ptr %3, align 8
  store ptr %1, ptr %4, align 8
  %5 = load ptr, ptr %3, align 8
  %6 = load ptr, ptr %4, align 8
  call void @_ZN20QFutureInterfaceBaseC2ERKS_(ptr noundef nonnull align 8 dereferenceable(16) %5, ptr noundef nonnull align 8 dereferenceable(16) %6)
  store ptr getelementptr inbounds ({ [4 x ptr] }, ptr @_ZTV16QFutureInterfaceIP15QTreeWidgetItemE, i32 0, i32 0, i32 2), ptr %5, align 8
  %7 = call noundef zeroext i1 @_ZNK20QFutureInterfaceBase4refTEv(ptr noundef nonnull align 8 dereferenceable(16) %5) #19
  ret void
}

; Function Attrs: mustprogress uwtable
define linkonce_odr void @_ZN7QFutureIP15QTreeWidgetItemEC2ERKS2_(ptr noundef nonnull align 8 dereferenceable(16) %0, ptr noundef nonnull align 8 dereferenceable(16) %1) unnamed_addr #0 comdat align 2 {
  %3 = alloca ptr, align 8
  %4 = alloca ptr, align 8
  store ptr %0, ptr %3, align 8
  store ptr %1, ptr %4, align 8
  %5 = load ptr, ptr %3, align 8
  %6 = getelementptr inbounds %class.QFuture, ptr %5, i32 0, i32 0
  %7 = load ptr, ptr %4, align 8
  %8 = getelementptr inbounds %class.QFuture, ptr %7, i32 0, i32 0
  call void @_ZN16QFutureInterfaceIP15QTreeWidgetItemEC2ERKS2_(ptr noundef nonnull align 8 dereferenceable(16) %6, ptr noundef nonnull align 8 dereferenceable(16) %8)
  ret void
}

; Function Attrs: mustprogress uwtable
define linkonce_odr void @_ZNK14QFutureWatcherIP15QTreeWidgetItemE6futureEv(ptr dead_on_unwind noalias writable sret(%class.QFuture) align 8 %0, ptr noundef nonnull align 8 dereferenceable(32) %1) #0 comdat align 2 {
  %3 = alloca ptr, align 8
  %4 = alloca ptr, align 8
  store ptr %0, ptr %3, align 8
  store ptr %1, ptr %4, align 8
  %5 = load ptr, ptr %4, align 8
  %6 = getelementptr inbounds %class.QFutureWatcher, ptr %5, i32 0, i32 1
  call void @_ZN7QFutureIP15QTreeWidgetItemEC2ERKS2_(ptr noundef nonnull align 8 dereferenceable(16) %0, ptr noundef nonnull align 8 dereferenceable(16) %6)
  ret void
}

; Function Attrs: mustprogress uwtable
define void @_ZN29DisplayFilterExpressionDialog11addTreeItemEi(ptr noundef nonnull align 8 dereferenceable(120) %0, i32 noundef %1) #0 align 2 personality ptr @__gxx_personality_v0 {
  %3 = alloca ptr, align 8
  %4 = alloca i32, align 4
  %5 = alloca ptr, align 8
  %6 = alloca %class.QFuture, align 8
  %7 = alloca ptr, align 8
  %8 = alloca i32, align 4
  store ptr %0, ptr %3, align 8
  store i32 %1, ptr %4, align 4
  %9 = load ptr, ptr %3, align 8
  %10 = getelementptr inbounds %class.DisplayFilterExpressionDialog, ptr %9, i32 0, i32 1
  %11 = load ptr, ptr %10, align 8
  call void @_ZNK14QFutureWatcherIP15QTreeWidgetItemE6futureEv(ptr dead_on_unwind writable sret(%class.QFuture) align 8 %6, ptr noundef nonnull align 8 dereferenceable(32) %11)
  %12 = load i32, ptr %4, align 4
  %13 = invoke noundef ptr @_ZNK7QFutureIP15QTreeWidgetItemE8resultAtIS1_vEES1_i(ptr noundef nonnull align 8 dereferenceable(16) %6, i32 noundef %12)
          to label %14 unwind label %21

14:                                               ; preds = %2
  call void @_ZN7QFutureIP15QTreeWidgetItemED2Ev(ptr noundef nonnull align 8 dereferenceable(16) %6) #19
  store ptr %13, ptr %5, align 8
  %15 = getelementptr inbounds %class.DisplayFilterExpressionDialog, ptr %9, i32 0, i32 2
  %16 = load ptr, ptr %15, align 8
  %17 = getelementptr inbounds %class.Ui_DisplayFilterExpressionDialog, ptr %16, i32 0, i32 4
  %18 = load ptr, ptr %17, align 8
  %19 = call noundef ptr @_ZNK11QTreeWidget17invisibleRootItemEv(ptr noundef nonnull align 8 dereferenceable(40) %18)
  %20 = load ptr, ptr %5, align 8
  call void @_ZN15QTreeWidgetItem8addChildEPS_(ptr noundef nonnull align 8 dereferenceable(92) %19, ptr noundef %20)
  ret void

21:                                               ; preds = %2
  %22 = landingpad { ptr, i32 }
          cleanup
  %23 = extractvalue { ptr, i32 } %22, 0
  store ptr %23, ptr %7, align 8
  %24 = extractvalue { ptr, i32 } %22, 1
  store i32 %24, ptr %8, align 4
  call void @_ZN7QFutureIP15QTreeWidgetItemED2Ev(ptr noundef nonnull align 8 dereferenceable(16) %6) #19
  br label %25

25:                                               ; preds = %21
  %26 = load ptr, ptr %7, align 8
  %27 = load i32, ptr %8, align 4
  %28 = insertvalue { ptr, i32 } poison, ptr %26, 0
  %29 = insertvalue { ptr, i32 } %28, i32 %27, 1
  resume { ptr, i32 } %29
}