; Function Attrs: mustprogress uwtable
define void @_ZN29DisplayFilterExpressionDialog11addTreeItemEi(ptr nocapture noundef nonnull readonly align 8 dereferenceable(120) %0, i32 noundef %1) #0 align 2 personality ptr @__gxx_personality_v0 {
  %3 = alloca %class.QFuture, align 8
  %4 = getelementptr inbounds i8, ptr %0, i64 64
  %5 = load ptr, ptr %4, align 8
  %6 = getelementptr inbounds i8, ptr %5, i64 16
  call void @_ZN20QFutureInterfaceBaseC2ERKS_(ptr noundef nonnull align 8 dereferenceable(16) %3, ptr noundef nonnull align 8 dereferenceable(16) %6)
  store ptr getelementptr inbounds ({ [4 x ptr] }, ptr @_ZTV16QFutureInterfaceIP15QTreeWidgetItemE, i64 0, i32 0, i64 2), ptr %3, align 8, !alias.scope !51
  %7 = call noundef zeroext i1 @_ZNK20QFutureInterfaceBase4refTEv(ptr noundef nonnull align 8 dereferenceable(16) %3) #21
  %8 = invoke noundef ptr @_ZNK7QFutureIP15QTreeWidgetItemE8resultAtIS1_vEES1_i(ptr noundef nonnull align 8 dereferenceable(16) %3, i32 noundef %1)
          to label %9 unwind label %22

9:                                                ; preds = %2
  store ptr getelementptr inbounds ({ [4 x ptr] }, ptr @_ZTV16QFutureInterfaceIP15QTreeWidgetItemE, i64 0, i32 0, i64 2), ptr %3, align 8
  %10 = call noundef zeroext i1 @_ZNK20QFutureInterfaceBase6derefTEv(ptr noundef nonnull align 8 dereferenceable(16) %3) #21
  br i1 %10, label %_ZN7QFutureIP15QTreeWidgetItemED2Ev.exit, label %11

11:                                               ; preds = %9
  %12 = invoke noundef nonnull align 8 dereferenceable(44) ptr @_ZN20QFutureInterfaceBase15resultStoreBaseEv(ptr noundef nonnull align 8 dereferenceable(16) %3)
          to label %13 unwind label %14

13:                                               ; preds = %11
  invoke void @_ZN9QtPrivate15ResultStoreBase5clearIP15QTreeWidgetItemEEvv(ptr noundef nonnull align 8 dereferenceable(44) %12)
          to label %_ZN7QFutureIP15QTreeWidgetItemED2Ev.exit unwind label %14

14:                                               ; preds = %13, %11
  %15 = landingpad { ptr, i32 }
          catch ptr null
  %16 = extractvalue { ptr, i32 } %15, 0
  call void @__clang_call_terminate(ptr %16) #23
  unreachable

_ZN7QFutureIP15QTreeWidgetItemED2Ev.exit:         ; preds = %9, %13
  call void @_ZN20QFutureInterfaceBaseD2Ev(ptr noundef nonnull align 8 dereferenceable(16) %3) #21
  %17 = getelementptr inbounds i8, ptr %0, i64 72
  %18 = load ptr, ptr %17, align 8
  %19 = getelementptr inbounds i8, ptr %18, i64 32
  %20 = load ptr, ptr %19, align 8
  %21 = call noundef ptr @_ZNK11QTreeWidget17invisibleRootItemEv(ptr noundef nonnull align 8 dereferenceable(40) %20)
  call void @_ZN15QTreeWidgetItem8addChildEPS_(ptr noundef nonnull align 8 dereferenceable(92) %21, ptr noundef %8)
  ret void

22:                                               ; preds = %2
  %23 = landingpad { ptr, i32 }
          cleanup
  call void @_ZN7QFutureIP15QTreeWidgetItemED2Ev(ptr noundef nonnull align 8 dereferenceable(16) %3) #21
  resume { ptr, i32 } %23
}